target datalayout = "e-m:e-p270:32:32-p271:32:32-p272:64:64-i64:64-i128:128-f80:128-n8:16:32:64-S128"
target triple = "x86_64-pc-linux-gnu"

%struct.MpegEncContext = type { ptr, i32, i32, i32, [12 x i32], i32, %struct.ScanTable, %struct.ScanTable, [64 x i8], [64 x i8], ptr, ptr, i32, i32, i32, i32, i32, i32, i32, i32, i32, i32, i32, i32, i32, i32, i32, i32, i32, i32, i32, i32, i64, i64, ptr, %struct.BufferPoolContext, i32, i32, %union.anon, i32, %struct.MPVWorkPicture, %struct.MPVWorkPicture, %struct.MPVWorkPicture, i32, [3 x i32], ptr, [3 x ptr], ptr, ptr, ptr, ptr, ptr, ptr, [3 x ptr], i32, ptr, ptr, ptr, ptr, %struct.ScratchpadContext, i32, i32, i32, i32, i32, i32, %struct.BlockDSPContext, %struct.H264ChromaContext, %struct.HpelDSPContext, %struct.IDCTDSPContext, %struct.QpelDSPContext, %struct.VideoDSPContext, %struct.H263DSPContext, ptr, [2 x [2 x ptr]], i32, i32, [2 x [4 x [2 x i32]]], [2 x [2 x i32]], [2 x [2 x [2 x i32]]], [2 x [64 x i16]], i32, i32, i32, i32, i32, [6 x i32], [6 x i32], [3 x ptr], ptr, [64 x i16], [64 x i16], [64 x i16], [64 x i16], i32, i32, %struct.GetBitContext, i32, i32, i32, i32, i32, i32, i32, i32, i32, i32, i32, i32, i32, i32, i32, i64, i64, i16, i16, i16, i16, i32, i32, i32, i32, i32, i32, i32, i32, i32, [3 x i32], i32, i32, i32, i32, i32, i32, %struct.GetBitContext, i32, [2 x [2 x i32]], i32, i32, i32, i32, i32, i32, i32, i32, i32, i32, i32, i32, i32, i32, [2 x i32], i32, i32, ptr, ptr, ptr, ptr, ptr, i32, i32, %struct.ERContext }
%struct.ScanTable = type { ptr, [64 x i8], [64 x i8] }
%struct.BufferPoolContext = type { ptr, ptr, ptr, ptr, ptr, i32, i32, i32 }
%union.anon = type { [32 x ptr] }
%struct.MPVWorkPicture = type { [3 x ptr], [3 x i64], ptr, ptr, [2 x ptr], ptr, ptr, [2 x ptr], i32 }
%struct.ScratchpadContext = type { ptr, ptr, %union.anon.0, i32 }
%union.anon.0 = type { ptr }
%struct.BlockDSPContext = type { ptr, ptr, [2 x ptr] }
%struct.H264ChromaContext = type { [4 x ptr], [4 x ptr] }
%struct.HpelDSPContext = type { [4 x [4 x ptr]], [4 x [4 x ptr]], [4 x [4 x ptr]], [4 x ptr] }
%struct.IDCTDSPContext = type { ptr, ptr, ptr, ptr, ptr, ptr, [64 x i8], i32, i32 }
%struct.QpelDSPContext = type { [2 x [16 x ptr]], [2 x [16 x ptr]], [2 x [16 x ptr]] }
%struct.VideoDSPContext = type { ptr, ptr }
%struct.H263DSPContext = type { ptr, ptr }
%struct.GetBitContext = type { ptr, ptr, i32, i32, i32 }
%struct.ERContext = type { ptr, ptr, i32, ptr, i32, i32, i32, i64, i64, i32, i32, ptr, ptr, [3 x ptr], ptr, ptr, [2 x [4 x [2 x i32]]], %struct.ERPicture, %struct.ERPicture, %struct.ERPicture, [2 x ptr], [2 x ptr], i16, i16, i32, i32, ptr, ptr }
%struct.ERPicture = type { ptr, ptr, ptr, [2 x ptr], [2 x ptr], ptr, i32 }
%struct.WMV2DecContext = type { %struct.MSMP4DecContext, %struct.WMV2Context, %struct.IntraX8Context, i32, i32, i32, i32, [6 x i32], i32, i32, i32, i32, i32, i32, i32, [12 x i8], [6 x [64 x i16]] }
%struct.MSMP4DecContext = type { %struct.MpegEncContext, i32, i32, i32, i32, i32, i32, i32, i32, i32 }
%struct.WMV2Context = type { %struct.WMV2DSPContext, i32 }
%struct.WMV2DSPContext = type { ptr, ptr, [8 x ptr], i32 }
%struct.IntraX8Context = type { [4 x ptr], ptr, [3 x ptr], i32, ptr, [3 x [64 x i8]], %struct.WMV2DSPContext, [64 x i8], ptr, ptr, %struct.IntraX8DSPContext, %struct.BlockDSPContext, i32, i32, i32, i32, ptr, ptr, i32, i32, i32, [3 x ptr], [42 x i8], i32, i32, i32, i32, i32, i32, i32, i32, i32, i32, i32 }
%struct.IntraX8DSPContext = type { ptr, ptr, [12 x ptr], ptr }

@.str.5 = private unnamed_addr constant [28 x i8] c"internal error in WMV2 abt\0A\00", align 1

; Function Attrs: nounwind uwtable
define internal void @wmv2_add_block(ptr noundef %0, ptr noundef %1, ptr noundef %2, i32 noundef %3, i32 noundef %4) #0 {
  %6 = alloca ptr, align 8
  %7 = alloca ptr, align 8
  %8 = alloca ptr, align 8
  %9 = alloca i32, align 4
  %10 = alloca i32, align 4
  %11 = alloca ptr, align 8
  store ptr %0, ptr %6, align 8, !tbaa !13
  store ptr %1, ptr %7, align 8, !tbaa !9
  store ptr %2, ptr %8, align 8, !tbaa !11
  store i32 %3, ptr %9, align 4, !tbaa !58
  store i32 %4, ptr %10, align 4, !tbaa !58
  call void @llvm.lifetime.start.p0(i64 8, ptr %11) #10
  %12 = load ptr, ptr %6, align 8, !tbaa !13
  %13 = getelementptr inbounds nuw %struct.WMV2DecContext, ptr %12, i32 0, i32 0
  %14 = getelementptr inbounds nuw %struct.MSMP4DecContext, ptr %13, i32 0, i32 0
  store ptr %14, ptr %11, align 8, !tbaa !4
  %15 = load ptr, ptr %11, align 8, !tbaa !4
  %16 = getelementptr inbounds nuw %struct.MpegEncContext, ptr %15, i32 0, i32 4
  %17 = load i32, ptr %10, align 4, !tbaa !58
  %18 = sext i32 %17 to i64
  %19 = getelementptr inbounds [12 x i32], ptr %16, i64 0, i64 %18
  %20 = load i32, ptr %19, align 4, !tbaa !58
  %21 = icmp sge i32 %20, 0
  br i1 %21, label %22, label %97

22:                                               ; preds = %5
  %23 = load ptr, ptr %6, align 8, !tbaa !13
  %24 = getelementptr inbounds nuw %struct.WMV2DecContext, ptr %23, i32 0, i32 7
  %25 = load i32, ptr %10, align 4, !tbaa !58
  %26 = sext i32 %25 to i64
  %27 = getelementptr inbounds [6 x i32], ptr %24, i64 0, i64 %26
  %28 = load i32, ptr %27, align 4, !tbaa !58
  switch i32 %28, label %92 [
    i32 0, label %29
    i32 1, label %39
    i32 2, label %67
  ]

29:                                               ; preds = %22
  %30 = load ptr, ptr %6, align 8, !tbaa !13
  %31 = getelementptr inbounds nuw %struct.WMV2DecContext, ptr %30, i32 0, i32 1
  %32 = getelementptr inbounds nuw %struct.WMV2Context, ptr %31, i32 0, i32 0
  %33 = getelementptr inbounds nuw %struct.WMV2DSPContext, ptr %32, i32 0, i32 0
  %34 = load ptr, ptr %33, align 16, !tbaa !59
  %35 = load ptr, ptr %8, align 8, !tbaa !11
  %36 = load i32, ptr %9, align 4, !tbaa !58
  %37 = sext i32 %36 to i64
  %38 = load ptr, ptr %7, align 8, !tbaa !9
  call void %34(ptr noundef %35, i64 noundef %37, ptr noundef %38)
  br label %96

39:                                               ; preds = %22
  %40 = load ptr, ptr %8, align 8, !tbaa !11
  %41 = load i32, ptr %9, align 4, !tbaa !58
  %42 = sext i32 %41 to i64
  %43 = load ptr, ptr %7, align 8, !tbaa !9
  call void @ff_simple_idct84_add(ptr noundef %40, i64 noundef %42, ptr noundef %43)
  %44 = load ptr, ptr %8, align 8, !tbaa !11
  %45 = load i32, ptr %9, align 4, !tbaa !58
  %46 = mul nsw i32 4, %45
  %47 = sext i32 %46 to i64
  %48 = getelementptr inbounds i8, ptr %44, i64 %47
  %49 = load i32, ptr %9, align 4, !tbaa !58
  %50 = sext i32 %49 to i64
  %51 = load ptr, ptr %6, align 8, !tbaa !13
  %52 = getelementptr inbounds nuw %struct.WMV2DecContext, ptr %51, i32 0, i32 16
  %53 = load i32, ptr %10, align 4, !tbaa !58
  %54 = sext i32 %53 to i64
  %55 = getelementptr inbounds [6 x [64 x i16]], ptr %52, i64 0, i64 %54
  %56 = getelementptr inbounds [64 x i16], ptr %55, i64 0, i64 0
  call void @ff_simple_idct84_add(ptr noundef %48, i64 noundef %50, ptr noundef %56)
  %57 = load ptr, ptr %11, align 8, !tbaa !4
  %58 = getelementptr inbounds nuw %struct.MpegEncContext, ptr %57, i32 0, i32 66
  %59 = getelementptr inbounds nuw %struct.BlockDSPContext, ptr %58, i32 0, i32 0
  %60 = load ptr, ptr %59, align 8, !tbaa !68
  %61 = load ptr, ptr %6, align 8, !tbaa !13
  %62 = getelementptr inbounds nuw %struct.WMV2DecContext, ptr %61, i32 0, i32 16
  %63 = load i32, ptr %10, align 4, !tbaa !58
  %64 = sext i32 %63 to i64
  %65 = getelementptr inbounds [6 x [64 x i16]], ptr %62, i64 0, i64 %64
  %66 = getelementptr inbounds [64 x i16], ptr %65, i64 0, i64 0
  call void %60(ptr noundef %66)
  br label %96

67:                                               ; preds = %22
  %68 = load ptr, ptr %8, align 8, !tbaa !11
  %69 = load i32, ptr %9, align 4, !tbaa !58
  %70 = sext i32 %69 to i64
  %71 = load ptr, ptr %7, align 8, !tbaa !9
  call void @ff_simple_idct48_add(ptr noundef %68, i64 noundef %70, ptr noundef %71)
  %72 = load ptr, ptr %8, align 8, !tbaa !11
  %73 = getelementptr inbounds i8, ptr %72, i64 4
  %74 = load i32, ptr %9, align 4, !tbaa !58
  %75 = sext i32 %74 to i64
  %76 = load ptr, ptr %6, align 8, !tbaa !13
  %77 = getelementptr inbounds nuw %struct.WMV2DecContext, ptr %76, i32 0, i32 16
  %78 = load i32, ptr %10, align 4, !tbaa !58
  %79 = sext i32 %78 to i64
  %80 = getelementptr inbounds [6 x [64 x i16]], ptr %77, i64 0, i64 %79
  %81 = getelementptr inbounds [64 x i16], ptr %80, i64 0, i64 0
  call void @ff_simple_idct48_add(ptr noundef %73, i64 noundef %75, ptr noundef %81)
  %82 = load ptr, ptr %11, align 8, !tbaa !4
  %83 = getelementptr inbounds nuw %struct.MpegEncContext, ptr %82, i32 0, i32 66
  %84 = getelementptr inbounds nuw %struct.BlockDSPContext, ptr %83, i32 0, i32 0
  %85 = load ptr, ptr %84, align 8, !tbaa !68
  %86 = load ptr, ptr %6, align 8, !tbaa !13
  %87 = getelementptr inbounds nuw %struct.WMV2DecContext, ptr %86, i32 0, i32 16
  %88 = load i32, ptr %10, align 4, !tbaa !58
  %89 = sext i32 %88 to i64
  %90 = getelementptr inbounds [6 x [64 x i16]], ptr %87, i64 0, i64 %89
  %91 = getelementptr inbounds [64 x i16], ptr %90, i64 0, i64 0
  call void %85(ptr noundef %91)
  br label %96

92:                                               ; preds = %22
  %93 = load ptr, ptr %11, align 8, !tbaa !4
  %94 = getelementptr inbounds nuw %struct.MpegEncContext, ptr %93, i32 0, i32 10
  %95 = load ptr, ptr %94, align 8, !tbaa !42
  call void (ptr, i32, ptr, ...) @av_log(ptr noundef %95, i32 noundef 16, ptr noundef @.str.5)
  br label %96

96:                                               ; preds = %92, %67, %39, %29
  br label %97

97:                                               ; preds = %96, %5
  call void @llvm.lifetime.end.p0(i64 8, ptr %11) #10
  ret void
}