; Function Attrs: nounwind uwtable
define internal fastcc void @wmv2_add_block(ptr noundef %0, ptr noundef %1, ptr noundef %2, i32 noundef %3, i32 noundef range(i32 0, 6) %4) unnamed_addr #0 {
  %6 = getelementptr inbounds nuw i8, ptr %0, i64 20
  %7 = zext nneg i32 %4 to i64
  %8 = getelementptr inbounds nuw [12 x i32], ptr %6, i64 0, i64 %7
  %9 = load i32, ptr %8, align 4, !tbaa !52
  %10 = icmp sgt i32 %9, -1
  br i1 %10, label %11, label %38

11:                                               ; preds = %5
  %12 = getelementptr inbounds nuw i8, ptr %0, i64 5712
  %13 = getelementptr inbounds nuw [6 x i32], ptr %12, i64 0, i64 %7
  %14 = load i32, ptr %13, align 4, !tbaa !52
  switch i32 %14, label %35 [
    i32 0, label %15
    i32 1, label %19
    i32 2, label %28
  ]

15:                                               ; preds = %11
  %16 = getelementptr inbounds nuw i8, ptr %0, i64 4848
  %17 = load ptr, ptr %16, align 16, !tbaa !53
  %18 = sext i32 %3 to i64
  tail call void %17(ptr noundef %2, i64 noundef %18, ptr noundef %1) #7
  br label %38

19:                                               ; preds = %11
  %20 = sext i32 %3 to i64
  tail call void @ff_simple_idct84_add(ptr noundef %2, i64 noundef %20, ptr noundef %1) #7
  %21 = shl nsw i32 %3, 2
  %22 = sext i32 %21 to i64
  %23 = getelementptr inbounds i8, ptr %2, i64 %22
  %24 = getelementptr inbounds nuw i8, ptr %0, i64 5776
  %25 = getelementptr inbounds nuw [6 x [64 x i16]], ptr %24, i64 0, i64 %7
  tail call void @ff_simple_idct84_add(ptr noundef %23, i64 noundef %20, ptr noundef nonnull %25) #7
  %26 = getelementptr inbounds nuw i8, ptr %0, i64 1496
  %27 = load ptr, ptr %26, align 8, !tbaa !62
  tail call void %27(ptr noundef nonnull %25) #7
  br label %38

28:                                               ; preds = %11
  %29 = sext i32 %3 to i64
  tail call void @ff_simple_idct48_add(ptr noundef %2, i64 noundef %29, ptr noundef %1) #7
  %30 = getelementptr inbounds nuw i8, ptr %2, i64 4
  %31 = getelementptr inbounds nuw i8, ptr %0, i64 5776
  %32 = getelementptr inbounds nuw [6 x [64 x i16]], ptr %31, i64 0, i64 %7
  tail call void @ff_simple_idct48_add(ptr noundef nonnull %30, i64 noundef %29, ptr noundef nonnull %32) #7
  %33 = getelementptr inbounds nuw i8, ptr %0, i64 1496
  %34 = load ptr, ptr %33, align 8, !tbaa !62
  tail call void %34(ptr noundef nonnull %32) #7
  br label %38

35:                                               ; preds = %11
  %36 = getelementptr inbounds nuw i8, ptr %0, i64 472
  %37 = load ptr, ptr %36, align 8, !tbaa !36
  tail call void (ptr, i32, ptr, ...) @av_log(ptr noundef %37, i32 noundef 16, ptr noundef nonnull @.str.5) #7
  br label %38

38:                                               ; preds = %15, %19, %28, %35, %5
  ret void
}